target datalayout = "e-m:e-p270:32:32-p271:32:32-p272:64:64-i64:64-i128:128-f80:128-n8:16:32:64-S128"
target triple = "x86_64-pc-linux-gnu"

%"class.llvm::StringRef" = type { ptr, i64 }

@.str.1 = private unnamed_addr constant [8 x i8] c"aarch64\00", align 1
@.str.4 = private unnamed_addr constant [7 x i8] c"amdgcn\00", align 1
@.str.6 = private unnamed_addr constant [6 x i8] c"amdil\00", align 1
@.str.7 = private unnamed_addr constant [4 x i8] c"arc\00", align 1
@.str.8 = private unnamed_addr constant [4 x i8] c"arm\00", align 1
@.str.10 = private unnamed_addr constant [4 x i8] c"avr\00", align 1
@.str.13 = private unnamed_addr constant [5 x i8] c"csky\00", align 1
@.str.15 = private unnamed_addr constant [8 x i8] c"hexagon\00", align 1
@.str.17 = private unnamed_addr constant [6 x i8] c"hsail\00", align 1
@.str.18 = private unnamed_addr constant [8 x i8] c"kalimba\00", align 1
@.str.19 = private unnamed_addr constant [6 x i8] c"lanai\00", align 1
@.str.22 = private unnamed_addr constant [5 x i8] c"m68k\00", align 1
@.str.25 = private unnamed_addr constant [5 x i8] c"mips\00", align 1
@.str.34 = private unnamed_addr constant [5 x i8] c"r600\00", align 1
@.str.39 = private unnamed_addr constant [6 x i8] c"shave\00", align 1
@.str.40 = private unnamed_addr constant [6 x i8] c"sparc\00", align 1
@.str.44 = private unnamed_addr constant [5 x i8] c"spir\00", align 1
@.str.53 = private unnamed_addr constant [3 x i8] c"ve\00", align 1
@.str.58 = private unnamed_addr constant [6 x i8] c"xcore\00", align 1
@.str.59 = private unnamed_addr constant [7 x i8] c"xtensa\00", align 1
@.str.75 = private unnamed_addr constant [4 x i8] c"ppc\00", align 1
@.str.76 = private unnamed_addr constant [4 x i8] c"bpf\00", align 1
@.str.77 = private unnamed_addr constant [5 x i8] c"s390\00", align 1
@.str.78 = private unnamed_addr constant [4 x i8] c"x86\00", align 1
@.str.79 = private unnamed_addr constant [5 x i8] c"nvvm\00", align 1
@.str.80 = private unnamed_addr constant [4 x i8] c"spv\00", align 1
@.str.81 = private unnamed_addr constant [5 x i8] c"wasm\00", align 1
@.str.82 = private unnamed_addr constant [6 x i8] c"riscv\00", align 1
@.str.83 = private unnamed_addr constant [10 x i8] c"loongarch\00", align 1
@.str.84 = private unnamed_addr constant [3 x i8] c"dx\00", align 1

; Function Attrs: mustprogress nounwind uwtable
define linkonce_odr hidden noundef i64 @_ZNSt11char_traitsIcE6lengthEPKc(ptr noundef %0) #0 comdat align 2 {
  %2 = alloca ptr, align 8
  store ptr %0, ptr %2, align 8
  %3 = load ptr, ptr %2, align 8
  %4 = call i64 @strlen(ptr noundef %3) #7
  ret i64 %4
}

; Function Attrs: mustprogress nounwind uwtable
define linkonce_odr hidden void @_ZN4llvm9StringRefC2EPKc(ptr noundef nonnull align 8 dereferenceable(16) %0, ptr noundef %1) unnamed_addr #0 comdat align 2 {
  %3 = alloca ptr, align 8
  %4 = alloca ptr, align 8
  store ptr %0, ptr %3, align 8
  store ptr %1, ptr %4, align 8
  %5 = load ptr, ptr %3, align 8
  %6 = getelementptr inbounds nuw %"class.llvm::StringRef", ptr %5, i32 0, i32 0
  %7 = load ptr, ptr %4, align 8
  store ptr %7, ptr %6, align 8
  %8 = getelementptr inbounds nuw %"class.llvm::StringRef", ptr %5, i32 0, i32 1
  %9 = load ptr, ptr %4, align 8
  %10 = icmp ne ptr %9, null
  br i1 %10, label %11, label %14

11:                                               ; preds = %2
  %12 = load ptr, ptr %4, align 8
  %13 = call noundef i64 @_ZNSt11char_traitsIcE6lengthEPKc(ptr noundef %12)
  br label %15

14:                                               ; preds = %2
  br label %15

15:                                               ; preds = %14, %11
  %16 = phi i64 [ %13, %11 ], [ 0, %14 ]
  store i64 %16, ptr %8, align 8
  ret void
}

; Function Attrs: mustprogress nounwind uwtable
define linkonce_odr hidden void @_ZN4llvm9StringRefC2Ev(ptr noundef nonnull align 8 dereferenceable(16) %0) unnamed_addr #0 comdat align 2 {
  %2 = alloca ptr, align 8
  store ptr %0, ptr %2, align 8
  %3 = load ptr, ptr %2, align 8
  %4 = getelementptr inbounds nuw %"class.llvm::StringRef", ptr %3, i32 0, i32 0
  store ptr null, ptr %4, align 8
  %5 = getelementptr inbounds nuw %"class.llvm::StringRef", ptr %3, i32 0, i32 1
  store i64 0, ptr %5, align 8
  ret void
}

; Function Attrs: mustprogress nounwind uwtable
define dso_local { ptr, i64 } @_ZN4llvm6Triple17getArchTypePrefixENS0_8ArchTypeE(i32 noundef %0) #0 align 2 {
  %2 = alloca %"class.llvm::StringRef", align 8
  %3 = alloca i32, align 4
  store i32 %0, ptr %3, align 4
  %4 = load i32, ptr %3, align 4
  switch i32 %4, label %5 [
    i32 3, label %6
    i32 4, label %6
    i32 5, label %6
    i32 6, label %7
    i32 1, label %8
    i32 2, label %8
    i32 35, label %8
    i32 36, label %8
    i32 7, label %9
    i32 23, label %10
    i32 24, label %10
    i32 21, label %10
    i32 22, label %10
    i32 15, label %11
    i32 16, label %12
    i32 17, label %12
    i32 18, label %12
    i32 19, label %12
    i32 12, label %13
    i32 26, label %14
    i32 25, label %15
    i32 8, label %16
    i32 9, label %16
    i32 30, label %17
    i32 31, label %17
    i32 29, label %17
    i32 32, label %18
    i32 37, label %19
    i32 38, label %19
    i32 39, label %20
    i32 41, label %21
    i32 42, label %22
    i32 43, label %23
    i32 44, label %23
    i32 45, label %24
    i32 46, label %24
    i32 47, label %25
    i32 48, label %25
    i32 49, label %26
    i32 50, label %26
    i32 51, label %26
    i32 52, label %27
    i32 54, label %28
    i32 53, label %29
    i32 55, label %30
    i32 56, label %30
    i32 27, label %31
    i32 28, label %31
    i32 59, label %32
    i32 10, label %33
    i32 13, label %34
    i32 14, label %34
    i32 11, label %35
    i32 40, label %36
  ]

5:                                                ; preds = %1
  call void @llvm.memset.p0.i64(ptr align 8 %2, i8 0, i64 16, i1 false)
  call void @_ZN4llvm9StringRefC2Ev(ptr noundef nonnull align 8 dereferenceable(16) %2) #7
  br label %37

6:                                                ; preds = %1, %1, %1
  call void @_ZN4llvm9StringRefC2EPKc(ptr noundef nonnull align 8 dereferenceable(16) %2, ptr noundef @.str.1)
  br label %37

7:                                                ; preds = %1
  call void @_ZN4llvm9StringRefC2EPKc(ptr noundef nonnull align 8 dereferenceable(16) %2, ptr noundef @.str.7)
  br label %37

8:                                                ; preds = %1, %1, %1, %1
  call void @_ZN4llvm9StringRefC2EPKc(ptr noundef nonnull align 8 dereferenceable(16) %2, ptr noundef @.str.8)
  br label %37

9:                                                ; preds = %1
  call void @_ZN4llvm9StringRefC2EPKc(ptr noundef nonnull align 8 dereferenceable(16) %2, ptr noundef @.str.10)
  br label %37

10:                                               ; preds = %1, %1, %1, %1
  call void @_ZN4llvm9StringRefC2EPKc(ptr noundef nonnull align 8 dereferenceable(16) %2, ptr noundef @.str.75)
  br label %37

11:                                               ; preds = %1
  call void @_ZN4llvm9StringRefC2EPKc(ptr noundef nonnull align 8 dereferenceable(16) %2, ptr noundef @.str.22)
  br label %37

12:                                               ; preds = %1, %1, %1, %1
  call void @_ZN4llvm9StringRefC2EPKc(ptr noundef nonnull align 8 dereferenceable(16) %2, ptr noundef @.str.25)
  br label %37

13:                                               ; preds = %1
  call void @_ZN4llvm9StringRefC2EPKc(ptr noundef nonnull align 8 dereferenceable(16) %2, ptr noundef @.str.15)
  br label %37

14:                                               ; preds = %1
  call void @_ZN4llvm9StringRefC2EPKc(ptr noundef nonnull align 8 dereferenceable(16) %2, ptr noundef @.str.4)
  br label %37

15:                                               ; preds = %1
  call void @_ZN4llvm9StringRefC2EPKc(ptr noundef nonnull align 8 dereferenceable(16) %2, ptr noundef @.str.34)
  br label %37

16:                                               ; preds = %1, %1
  call void @_ZN4llvm9StringRefC2EPKc(ptr noundef nonnull align 8 dereferenceable(16) %2, ptr noundef @.str.76)
  br label %37

17:                                               ; preds = %1, %1, %1
  call void @_ZN4llvm9StringRefC2EPKc(ptr noundef nonnull align 8 dereferenceable(16) %2, ptr noundef @.str.40)
  br label %37

18:                                               ; preds = %1
  call void @_ZN4llvm9StringRefC2EPKc(ptr noundef nonnull align 8 dereferenceable(16) %2, ptr noundef @.str.77)
  br label %37

19:                                               ; preds = %1, %1
  call void @_ZN4llvm9StringRefC2EPKc(ptr noundef nonnull align 8 dereferenceable(16) %2, ptr noundef @.str.78)
  br label %37

20:                                               ; preds = %1
  call void @_ZN4llvm9StringRefC2EPKc(ptr noundef nonnull align 8 dereferenceable(16) %2, ptr noundef @.str.58)
  br label %37

21:                                               ; preds = %1
  call void @_ZN4llvm9StringRefC2EPKc(ptr noundef nonnull align 8 dereferenceable(16) %2, ptr noundef @.str.79)
  br label %37

22:                                               ; preds = %1
  call void @_ZN4llvm9StringRefC2EPKc(ptr noundef nonnull align 8 dereferenceable(16) %2, ptr noundef @.str.79)
  br label %37

23:                                               ; preds = %1, %1
  call void @_ZN4llvm9StringRefC2EPKc(ptr noundef nonnull align 8 dereferenceable(16) %2, ptr noundef @.str.6)
  br label %37

24:                                               ; preds = %1, %1
  call void @_ZN4llvm9StringRefC2EPKc(ptr noundef nonnull align 8 dereferenceable(16) %2, ptr noundef @.str.17)
  br label %37

25:                                               ; preds = %1, %1
  call void @_ZN4llvm9StringRefC2EPKc(ptr noundef nonnull align 8 dereferenceable(16) %2, ptr noundef @.str.44)
  br label %37

26:                                               ; preds = %1, %1, %1
  call void @_ZN4llvm9StringRefC2EPKc(ptr noundef nonnull align 8 dereferenceable(16) %2, ptr noundef @.str.80)
  br label %37

27:                                               ; preds = %1
  call void @_ZN4llvm9StringRefC2EPKc(ptr noundef nonnull align 8 dereferenceable(16) %2, ptr noundef @.str.18)
  br label %37

28:                                               ; preds = %1
  call void @_ZN4llvm9StringRefC2EPKc(ptr noundef nonnull align 8 dereferenceable(16) %2, ptr noundef @.str.19)
  br label %37

29:                                               ; preds = %1
  call void @_ZN4llvm9StringRefC2EPKc(ptr noundef nonnull align 8 dereferenceable(16) %2, ptr noundef @.str.39)
  br label %37

30:                                               ; preds = %1, %1
  call void @_ZN4llvm9StringRefC2EPKc(ptr noundef nonnull align 8 dereferenceable(16) %2, ptr noundef @.str.81)
  br label %37

31:                                               ; preds = %1, %1
  call void @_ZN4llvm9StringRefC2EPKc(ptr noundef nonnull align 8 dereferenceable(16) %2, ptr noundef @.str.82)
  br label %37

32:                                               ; preds = %1
  call void @_ZN4llvm9StringRefC2EPKc(ptr noundef nonnull align 8 dereferenceable(16) %2, ptr noundef @.str.53)
  br label %37

33:                                               ; preds = %1
  call void @_ZN4llvm9StringRefC2EPKc(ptr noundef nonnull align 8 dereferenceable(16) %2, ptr noundef @.str.13)
  br label %37

34:                                               ; preds = %1, %1
  call void @_ZN4llvm9StringRefC2EPKc(ptr noundef nonnull align 8 dereferenceable(16) %2, ptr noundef @.str.83)
  br label %37

35:                                               ; preds = %1
  call void @_ZN4llvm9StringRefC2EPKc(ptr noundef nonnull align 8 dereferenceable(16) %2, ptr noundef @.str.84)
  br label %37

36:                                               ; preds = %1
  call void @_ZN4llvm9StringRefC2EPKc(ptr noundef nonnull align 8 dereferenceable(16) %2, ptr noundef @.str.59)
  br label %37

37:                                               ; preds = %36, %35, %34, %33, %32, %31, %30, %29, %28, %27, %26, %25, %24, %23, %22, %21, %20, %19, %18, %17, %16, %15, %14, %13, %12, %11, %10, %9, %8, %7, %6, %5
  %38 = load { ptr, i64 }, ptr %2, align 8
  ret { ptr, i64 } %38
}