; Function Attrs: mustprogress nofree norecurse nosync nounwind willreturn memory(none) uwtable
define dso_local { ptr, i64 } @_ZN4llvm6Triple17getArchTypePrefixENS0_8ArchTypeE(i32 noundef %0) local_unnamed_addr #0 align 2 {
  %switch.tableidx = add i32 %0, -1
  %2 = icmp ult i32 %switch.tableidx, 59
  br i1 %2, label %switch.lookup, label %5

switch.lookup:                                    ; preds = %1
  %3 = zext nneg i32 %switch.tableidx to i64
  %switch.gep = getelementptr inbounds [59 x ptr], ptr @switch.table._ZN4llvm6Triple17getArchTypePrefixENS0_8ArchTypeE, i64 0, i64 %3
  %switch.load = load ptr, ptr %switch.gep, align 8
  %4 = zext nneg i32 %switch.tableidx to i64
  %switch.gep3 = getelementptr inbounds [59 x i64], ptr @switch.table._ZN4llvm6Triple17getArchTypePrefixENS0_8ArchTypeE.3, i64 0, i64 %4
  %switch.load4 = load i64, ptr %switch.gep3, align 8
  br label %5

5:                                                ; preds = %switch.lookup, %1
  %.sroa.0.0 = phi ptr [ null, %1 ], [ %switch.load, %switch.lookup ]
  %.sroa.34.0 = phi i64 [ 0, %1 ], [ %switch.load4, %switch.lookup ]
  %.fca.0.insert = insertvalue { ptr, i64 } poison, ptr %.sroa.0.0, 0
  %.fca.1.insert = insertvalue { ptr, i64 } %.fca.0.insert, i64 %.sroa.34.0, 1
  ret { ptr, i64 } %.fca.1.insert
}